; Function Attrs: nounwind uwtable
define internal fastcc void @malloc_init_hard_cleanup(ptr noundef %tsdn, i1 noundef zeroext %reentrancy_set) unnamed_addr #1 {
entry:
  store atomic i8 0, ptr getelementptr inbounds (%struct.malloc_mutex_s, ptr @init_lock, i64 0, i32 0, i32 0, i32 2, i32 0) monotonic, align 8
  %call1.i = tail call i32 @pthread_mutex_unlock(ptr noundef nonnull getelementptr inbounds (%struct.malloc_mutex_s, ptr @init_lock, i64 0, i32 0, i32 0, i32 1, i32 0, i32 0)) #19
  br i1 %reentrancy_set, label %do.end, label %if.end

do.end:                                           ; preds = %entry
  %cant_access_tsd_items_directly_use_a_getter_or_setter_reentrancy_level.i.i.i = getelementptr inbounds i8, ptr %tsdn, i64 1
  %0 = load i8, ptr %cant_access_tsd_items_directly_use_a_getter_or_setter_reentrancy_level.i.i.i, align 1
  %dec.i.i = add i8 %0, -1
  store i8 %dec.i.i, ptr %cant_access_tsd_items_directly_use_a_getter_or_setter_reentrancy_level.i.i.i, align 1
  %cmp.i.i = icmp eq i8 %dec.i.i, 0
  br i1 %cmp.i.i, label %if.then.i.i, label %if.end

if.then.i.i:                                      ; preds = %do.end
  tail call void @tsd_slow_update(ptr noundef nonnull %tsdn) #19
  br label %if.end

if.end:                                           ; preds = %if.then.i.i, %do.end, %entry
  ret void
}